; Function Attrs: nounwind uwtable
define dso_local i64 @GetSQLLocalTime(i32 noundef %0) local_unnamed_addr #0 {
  %2 = alloca %struct.pg_tm, align 8
  %3 = alloca i32, align 4
  %4 = alloca i32, align 4
  call void @llvm.lifetime.start.p0(i64 56, ptr nonnull %2) #16
  call void @llvm.lifetime.start.p0(i64 4, ptr nonnull %3) #16
  call void @llvm.lifetime.start.p0(i64 4, ptr nonnull %4) #16
  call void @GetCurrentTimeUsec(ptr noundef nonnull %2, ptr noundef nonnull %3, ptr noundef nonnull %4) #16
  %5 = load i32, ptr %3, align 4
  %6 = getelementptr inbounds nuw i8, ptr %2, i64 8
  %7 = load i32, ptr %6, align 8
  %8 = mul i32 %7, 60
  %9 = getelementptr inbounds nuw i8, ptr %2, i64 4
  %10 = load i32, ptr %9, align 4
  %11 = add i32 %8, %10
  %12 = mul i32 %11, 60
  %13 = load i32, ptr %2, align 8
  %14 = add i32 %12, %13
  %15 = sext i32 %14 to i64
  %16 = mul nsw i64 %15, 1000000
  %17 = sext i32 %5 to i64
  %18 = add nsw i64 %16, %17
  %or.cond.i = icmp ult i32 %0, 7
  br i1 %or.cond.i, label %19, label %AdjustTimeForTypmod.exit

19:                                               ; preds = %1
  %20 = icmp sgt i64 %18, -1
  %21 = zext nneg i32 %0 to i64
  %22 = getelementptr inbounds nuw [7 x i64], ptr @AdjustTimeForTypmod.TimeOffsets, i64 0, i64 %21
  %23 = load i64, ptr %22, align 8
  %24 = getelementptr inbounds nuw [7 x i64], ptr @AdjustTimeForTypmod.TimeScales, i64 0, i64 %21
  %25 = load i64, ptr %24, align 8
  br i1 %20, label %26, label %30

26:                                               ; preds = %19
  %27 = add i64 %23, %18
  %.fr14.i = freeze i64 %27
  %28 = srem i64 %.fr14.i, %25
  %29 = sub nsw i64 %.fr14.i, %28
  br label %AdjustTimeForTypmod.exit

30:                                               ; preds = %19
  %31 = sub i64 %23, %18
  %.fr.i = freeze i64 %31
  %32 = srem i64 %.fr.i, %25
  %.neg.i = sub i64 %32, %.fr.i
  br label %AdjustTimeForTypmod.exit

AdjustTimeForTypmod.exit:                         ; preds = %26, %30, %1
  %.0 = phi i64 [ %18, %1 ], [ %29, %26 ], [ %.neg.i, %30 ]
  call void @llvm.lifetime.end.p0(i64 4, ptr nonnull %4) #16
  call void @llvm.lifetime.end.p0(i64 4, ptr nonnull %3) #16
  call void @llvm.lifetime.end.p0(i64 56, ptr nonnull %2) #16
  ret i64 %.0
}